; Function Attrs: mustprogress uwtable
define hidden void @_ZNK19OpenColorIO_v2_5dev31Renderer_ACES_OutputTransform203fwdEPKvPvl(ptr noundef nonnull align 8 dereferenceable(9000) %0, ptr noundef readonly captures(none) %1, ptr noundef writeonly captures(none) %2, i64 noundef %3) local_unnamed_addr #11 align 2 {
  %5 = alloca %"struct.std::array", align 4
  %6 = alloca %"struct.std::array", align 8
  %7 = alloca %"struct.std::array", align 8
  %8 = alloca %"struct.std::array", align 8
  %9 = icmp sgt i64 %3, 0
  br i1 %9, label %.lr.ph, label %._crit_edge

.lr.ph:                                           ; preds = %4
  %10 = getelementptr inbounds nuw i8, ptr %5, i64 4
  %11 = getelementptr inbounds nuw i8, ptr %5, i64 8
  %12 = getelementptr inbounds nuw i8, ptr %0, i64 12
  %.sroa.212.0..sroa_idx = getelementptr inbounds nuw i8, ptr %6, i64 8
  %13 = getelementptr inbounds nuw i8, ptr %0, i64 236
  %14 = getelementptr inbounds nuw i8, ptr %0, i64 268
  %.sroa.28.0..sroa_idx = getelementptr inbounds nuw i8, ptr %7, i64 8
  %15 = getelementptr inbounds nuw i8, ptr %0, i64 1740
  %.sroa.24.0..sroa_idx = getelementptr inbounds nuw i8, ptr %8, i64 8
  %16 = getelementptr inbounds nuw i8, ptr %0, i64 124
  br label %17

._crit_edge:                                      ; preds = %17, %4
  ret void

17:                                               ; preds = %.lr.ph, %17
  %.031 = phi ptr [ %1, %.lr.ph ], [ %32, %17 ]
  %.02730 = phi ptr [ %2, %.lr.ph ], [ %33, %17 ]
  %.02829 = phi i64 [ 0, %.lr.ph ], [ %34, %17 ]
  call void @llvm.lifetime.start.p0(i64 12, ptr nonnull %5) #28
  %18 = load float, ptr %.031, align 4, !tbaa !13
  store float %18, ptr %5, align 4, !tbaa !13
  %19 = getelementptr inbounds nuw i8, ptr %.031, i64 4
  %20 = load float, ptr %19, align 4, !tbaa !13
  store float %20, ptr %10, align 4, !tbaa !13
  %21 = getelementptr inbounds nuw i8, ptr %.031, i64 8
  %22 = load float, ptr %21, align 4, !tbaa !13
  store float %22, ptr %11, align 4, !tbaa !13
  call void @llvm.lifetime.start.p0(i64 12, ptr nonnull %6) #28
  %23 = call { <2 x float>, float } @_ZN19OpenColorIO_v2_5dev5ACES210RGB_to_JMhERKSt5arrayIfLm3EERKNS0_9JMhParamsE(ptr noundef nonnull align 4 dereferenceable(12) %5, ptr noundef nonnull align 4 dereferenceable(112) %12)
  %.fca.0.extract9 = extractvalue { <2 x float>, float } %23, 0
  %.fca.1.extract10 = extractvalue { <2 x float>, float } %23, 1
  store <2 x float> %.fca.0.extract9, ptr %6, align 8
  store float %.fca.1.extract10, ptr %.sroa.212.0..sroa_idx, align 8
  call void @llvm.lifetime.start.p0(i64 12, ptr nonnull %7) #28
  %24 = call { <2 x float>, float } @_ZN19OpenColorIO_v2_5dev5ACES229tonescale_chroma_compress_fwdERKSt5arrayIfLm3EERKNS0_9JMhParamsERKNS0_15ToneScaleParamsERKNS0_20ChromaCompressParamsE(ptr noundef nonnull align 4 dereferenceable(12) %6, ptr noundef nonnull align 4 dereferenceable(112) %12, ptr noundef nonnull align 4 dereferenceable(32) %13, ptr noundef nonnull align 4 dereferenceable(1472) %14)
  %.fca.0.extract5 = extractvalue { <2 x float>, float } %24, 0
  %.fca.1.extract6 = extractvalue { <2 x float>, float } %24, 1
  store <2 x float> %.fca.0.extract5, ptr %7, align 8
  store float %.fca.1.extract6, ptr %.sroa.28.0..sroa_idx, align 8
  call void @llvm.lifetime.start.p0(i64 12, ptr nonnull %8) #28
  %25 = call { <2 x float>, float } @_ZN19OpenColorIO_v2_5dev5ACES218gamut_compress_fwdERKSt5arrayIfLm3EERKNS0_19GamutCompressParamsE(ptr noundef nonnull align 4 dereferenceable(12) %7, ptr noundef nonnull align 4 dereferenceable(7260) %15)
  %.fca.0.extract1 = extractvalue { <2 x float>, float } %25, 0
  %.fca.1.extract2 = extractvalue { <2 x float>, float } %25, 1
  store <2 x float> %.fca.0.extract1, ptr %8, align 8
  store float %.fca.1.extract2, ptr %.sroa.24.0..sroa_idx, align 8
  %26 = call { <2 x float>, float } @_ZN19OpenColorIO_v2_5dev5ACES210JMh_to_RGBERKSt5arrayIfLm3EERKNS0_9JMhParamsE(ptr noundef nonnull align 4 dereferenceable(12) %8, ptr noundef nonnull align 4 dereferenceable(112) %16)
  %.fca.0.extract = extractvalue { <2 x float>, float } %26, 0
  %.fca.1.extract = extractvalue { <2 x float>, float } %26, 1
  %.sroa.0.0.vec.extract = extractelement <2 x float> %.fca.0.extract, i64 0
  store float %.sroa.0.0.vec.extract, ptr %.02730, align 4, !tbaa !13
  %.sroa.0.4.vec.extract = extractelement <2 x float> %.fca.0.extract, i64 1
  %27 = getelementptr inbounds nuw i8, ptr %.02730, i64 4
  store float %.sroa.0.4.vec.extract, ptr %27, align 4, !tbaa !13
  %28 = getelementptr inbounds nuw i8, ptr %.02730, i64 8
  store float %.fca.1.extract, ptr %28, align 4, !tbaa !13
  %29 = getelementptr inbounds nuw i8, ptr %.031, i64 12
  %30 = load float, ptr %29, align 4, !tbaa !13
  %31 = getelementptr inbounds nuw i8, ptr %.02730, i64 12
  store float %30, ptr %31, align 4, !tbaa !13
  %32 = getelementptr inbounds nuw i8, ptr %.031, i64 16
  %33 = getelementptr inbounds nuw i8, ptr %.02730, i64 16
  call void @llvm.lifetime.end.p0(i64 12, ptr nonnull %8) #28
  call void @llvm.lifetime.end.p0(i64 12, ptr nonnull %7) #28
  call void @llvm.lifetime.end.p0(i64 12, ptr nonnull %6) #28
  call void @llvm.lifetime.end.p0(i64 12, ptr nonnull %5) #28
  %34 = add nuw nsw i64 %.02829, 1
  %exitcond.not = icmp eq i64 %34, %3
  br i1 %exitcond.not, label %._crit_edge, label %17, !llvm.loop !100
}